target datalayout = "e-m:e-p270:32:32-p271:32:32-p272:64:64-i64:64-i128:128-f80:128-n8:16:32:64-S128"
target triple = "x86_64-pc-linux-gnu"

%struct.AVRational = type { i32, i32 }
%struct.AVFormatContext = type { ptr, ptr, ptr, ptr, ptr, i32, i32, ptr, i32, ptr, i32, ptr, ptr, i64, i64, i64, i32, i32, i32, i64, i64, ptr, i32, i32, ptr, i32, i32, i32, i32, ptr, i64, i32, i32, %struct.AVIOInterruptCB, i32, i32, i32, i32, i64, i32, i32, i32, i32, i32, i32, i32, i32, i32, i32, i32, i32, i64, i32, i32, i32, i32, i32, ptr, ptr, ptr, ptr, i32, ptr, ptr, ptr, ptr, i32, ptr, ptr, i64, ptr, ptr, ptr, i64 }
%struct.AVIOInterruptCB = type { ptr, ptr }
%struct.AVPacket = type { ptr, i64, i64, ptr, i32, i32, i32, ptr, i32, i64, i64, ptr, ptr, %struct.AVRational }

; Function Attrs: nounwind uwtable
define internal i32 @read_packet(ptr noundef %0, ptr noundef %1) #0 {
  %3 = alloca ptr, align 8
  %4 = alloca ptr, align 8
  %5 = alloca i32, align 4
  %6 = alloca i32, align 4
  %7 = alloca i64, align 8
  store ptr %0, ptr %3, align 8, !tbaa !14
  store ptr %1, ptr %4, align 8, !tbaa !62
  call void @llvm.lifetime.start.p0(i64 4, ptr %5) #4
  call void @llvm.lifetime.start.p0(i64 4, ptr %6) #4
  %8 = load ptr, ptr %3, align 8, !tbaa !14
  %9 = getelementptr inbounds nuw %struct.AVFormatContext, ptr %8, i32 0, i32 4
  %10 = load ptr, ptr %9, align 8, !tbaa !16
  %11 = call i32 @avio_rl32(ptr noundef %10)
  store i32 %11, ptr %6, align 4, !tbaa !64
  call void @llvm.lifetime.start.p0(i64 8, ptr %7) #4
  %12 = load ptr, ptr %3, align 8, !tbaa !14
  %13 = getelementptr inbounds nuw %struct.AVFormatContext, ptr %12, i32 0, i32 4
  %14 = load ptr, ptr %13, align 8, !tbaa !16
  %15 = call i64 @avio_rl64(ptr noundef %14)
  store i64 %15, ptr %7, align 8, !tbaa !65
  %16 = load ptr, ptr %3, align 8, !tbaa !14
  %17 = getelementptr inbounds nuw %struct.AVFormatContext, ptr %16, i32 0, i32 4
  %18 = load ptr, ptr %17, align 8, !tbaa !16
  %19 = load ptr, ptr %4, align 8, !tbaa !62
  %20 = load i32, ptr %6, align 4, !tbaa !64
  %21 = call i32 @av_get_packet(ptr noundef %18, ptr noundef %19, i32 noundef %20)
  store i32 %21, ptr %5, align 4, !tbaa !64
  %22 = load ptr, ptr %4, align 8, !tbaa !62
  %23 = getelementptr inbounds nuw %struct.AVPacket, ptr %22, i32 0, i32 5
  store i32 0, ptr %23, align 4, !tbaa !66
  %24 = load i64, ptr %7, align 8, !tbaa !65
  %25 = load ptr, ptr %4, align 8, !tbaa !62
  %26 = getelementptr inbounds nuw %struct.AVPacket, ptr %25, i32 0, i32 1
  store i64 %24, ptr %26, align 8, !tbaa !67
  %27 = load ptr, ptr %4, align 8, !tbaa !62
  %28 = getelementptr inbounds nuw %struct.AVPacket, ptr %27, i32 0, i32 10
  %29 = load i64, ptr %28, align 8, !tbaa !68
  %30 = sub nsw i64 %29, 12
  store i64 %30, ptr %28, align 8, !tbaa !68
  %31 = load i32, ptr %5, align 4, !tbaa !64
  call void @llvm.lifetime.end.p0(i64 8, ptr %7) #4
  call void @llvm.lifetime.end.p0(i64 4, ptr %6) #4
  call void @llvm.lifetime.end.p0(i64 4, ptr %5) #4
  ret i32 %31
}