; Function Attrs: nounwind uwtable
define internal i32 @read_packet(ptr noundef readonly captures(none) %0, ptr noundef %1) #1 {
  %3 = getelementptr inbounds nuw i8, ptr %0, i64 32
  %4 = load ptr, ptr %3, align 8, !tbaa !12
  %5 = tail call i32 @avio_rl32(ptr noundef %4) #3
  %6 = load ptr, ptr %3, align 8, !tbaa !12
  %7 = tail call i64 @avio_rl64(ptr noundef %6) #3
  %8 = load ptr, ptr %3, align 8, !tbaa !12
  %9 = tail call i32 @av_get_packet(ptr noundef %8, ptr noundef %1, i32 noundef %5) #3
  %10 = getelementptr inbounds nuw i8, ptr %1, i64 36
  store i32 0, ptr %10, align 4, !tbaa !55
  %11 = getelementptr inbounds nuw i8, ptr %1, i64 8
  store i64 %7, ptr %11, align 8, !tbaa !56
  %12 = getelementptr inbounds nuw i8, ptr %1, i64 72
  %13 = load i64, ptr %12, align 8, !tbaa !57
  %14 = add nsw i64 %13, -12
  store i64 %14, ptr %12, align 8, !tbaa !57
  ret i32 %9
}